ccopy_reg
_reconstructor
p0
(cdedupe.datamodel
DataModel
p1
c__builtin__
object
p2
Ntp3
Rp4
(dp5
S'primary_fields'
p6
(lp7
g0
(cdedupe.variables.string
StringType
p8
g2
Ntp9
Rp10
(dp11
S'predicates'
p12
(lp13
g0
(cdedupe.predicates
StringPredicate
p14
g2
Ntp15
Rp16
(dp17
S'_cached_hash'
p18
I-551735755720711231
sS'__name__'
p19
S'(wholeFieldPredicate, Name)'
p20
sS'func'
p21
cdedupe.predicates
wholeFieldPredicate
p22
sS'field'
p23
S'Name'
p24
sbag0
(g14
g2
Ntp25
Rp26
(dp27
g18
I-3523947464352371949
sg19
S'(firstTokenPredicate, Name)'
p28
sg21
cdedupe.predicates
firstTokenPredicate
p29
sg23
g24
sbag0
(g14
g2
Ntp30
Rp31
(dp32
g18
I-8840529436432204152
sg19
S'(commonIntegerPredicate, Name)'
p33
sg21
cdedupe.predicates
commonIntegerPredicate
p34
sg23
g24
sbag0
(g14
g2
Ntp35
Rp36
(dp37
g18
I-7926442262101393453
sg19
S'(nearIntegersPredicate, Name)'
p38
sg21
cdedupe.predicates
nearIntegersPredicate
p39
sg23
g24
sbag0
(g14
g2
Ntp40
Rp41
(dp42
g18
I-1993887654693124464
sg19
S'(firstIntegerPredicate, Name)'
p43
sg21
cdedupe.predicates
firstIntegerPredicate
p44
sg23
g24
sbag0
(g14
g2
Ntp45
Rp46
(dp47
g18
I4361925208906284796
sg19
S'(sameThreeCharStartPredicate, Name)'
p48
sg21
cdedupe.predicates
sameThreeCharStartPredicate
p49
sg23
g24
sbag0
(g14
g2
Ntp50
Rp51
(dp52
g18
I28912239335323565
sg19
S'(sameFiveCharStartPredicate, Name)'
p53
sg21
cdedupe.predicates
sameFiveCharStartPredicate
p54
sg23
g24
sbag0
(g14
g2
Ntp55
Rp56
(dp57
g18
I-3313834636247595039
sg19
S'(sameSevenCharStartPredicate, Name)'
p58
sg21
cdedupe.predicates
sameSevenCharStartPredicate
p59
sg23
g24
sbag0
(g14
g2
Ntp60
Rp61
(dp62
g18
I3689978175956078728
sg19
S'(commonTwoTokens, Name)'
p63
sg21
cdedupe.predicates
commonTwoTokens
p64
sg23
g24
sbag0
(g14
g2
Ntp65
Rp66
(dp67
g18
I-3013709623422662996
sg19
S'(commonThreeTokens, Name)'
p68
sg21
cdedupe.predicates
commonThreeTokens
p69
sg23
g24
sbag0
(g14
g2
Ntp70
Rp71
(dp72
g18
I-1275322169648847605
sg19
S'(fingerprint, Name)'
p73
sg21
cdedupe.predicates
fingerprint
p74
sg23
g24
sbag0
(g14
g2
Ntp75
Rp76
(dp77
g18
I-8942543871219233909
sg19
S'(oneGramFingerprint, Name)'
p78
sg21
cdedupe.predicates
oneGramFingerprint
p79
sg23
g24
sbag0
(g14
g2
Ntp80
Rp81
(dp82
g18
I1542648151749340665
sg19
S'(twoGramFingerprint, Name)'
p83
sg21
cdedupe.predicates
twoGramFingerprint
p84
sg23
g24
sbag0
(g14
g2
Ntp85
Rp86
(dp87
g18
I2545306515122525983
sg19
S'(sortedAcronym, Name)'
p88
sg21
cdedupe.predicates
sortedAcronym
p89
sg23
g24
sbag0
(g14
g2
Ntp90
Rp91
(dp92
g18
I2749272877225210664
sg19
S'(commonFourGram, Name)'
p93
sg21
cdedupe.predicates
commonFourGram
p94
sg23
g24
sbag0
(g14
g2
Ntp95
Rp96
(dp97
g18
I-8167078063286500055
sg19
S'(commonSixGram, Name)'
p98
sg21
cdedupe.predicates
commonSixGram
p99
sg23
g24
sbag0
(g14
g2
Ntp100
Rp101
(dp102
g18
I-2780277337154628333
sg19
S'(tokenFieldPredicate, Name)'
p103
sg21
cdedupe.predicates
tokenFieldPredicate
p104
sg23
g24
sbag0
(g14
g2
Ntp105
Rp106
(dp107
g18
I5336887929660198297
sg19
S'(suffixArray, Name)'
p108
sg21
cdedupe.predicates
suffixArray
p109
sg23
g24
sbag0
(g14
g2
Ntp110
Rp111
(dp112
g18
I-2437840653486406629
sg19
S'(doubleMetaphone, Name)'
p113
sg21
cdedupe.predicates
doubleMetaphone
p114
sg23
g24
sbag0
(g14
g2
Ntp115
Rp116
(dp117
g18
I8106578767865638846
sg19
S'(metaphoneToken, Name)'
p118
sg21
cdedupe.predicates
metaphoneToken
p119
sg23
g24
sbag0
(cdedupe.predicates
TfidfNGramCanopyPredicate
p120
g2
Ntp121
Rp122
(dp123
S'threshold'
p124
F0.2
sg19
S'(0.2, Name)'
p125
sg23
g24
sbag0
(g120
g2
Ntp126
Rp127
(dp128
g124
F0.4
sg19
S'(0.4, Name)'
p129
sg23
g24
sbag0
(g120
g2
Ntp130
Rp131
(dp132
g124
F0.6
sg19
S'(0.6, Name)'
p133
sg23
g24
sbag0
(g120
g2
Ntp134
Rp135
(dp136
g124
F0.8
sg19
S'(0.8, Name)'
p137
sg23
g24
sbag0
(cdedupe.predicates
TfidfNGramSearchPredicate
p138
g2
Ntp139
Rp140
(dp141
g124
F0.2
sg19
S'(0.2, Name)'
p142
sg23
g24
sbag0
(g138
g2
Ntp143
Rp144
(dp145
g124
F0.4
sg19
S'(0.4, Name)'
p146
sg23
g24
sbag0
(g138
g2
Ntp147
Rp148
(dp149
g124
F0.6
sg19
S'(0.6, Name)'
p150
sg23
g24
sbag0
(g138
g2
Ntp151
Rp152
(dp153
g124
F0.8
sg19
S'(0.8, Name)'
p154
sg23
g24
sbag0
(cdedupe.predicates
TfidfTextCanopyPredicate
p155
g2
Ntp156
Rp157
(dp158
g124
F0.2
sg19
S'(0.2, Name)'
p159
sg23
g24
sbag0
(g155
g2
Ntp160
Rp161
(dp162
g124
F0.4
sg19
S'(0.4, Name)'
p163
sg23
g24
sbag0
(g155
g2
Ntp164
Rp165
(dp166
g124
F0.6
sg19
S'(0.6, Name)'
p167
sg23
g24
sbag0
(g155
g2
Ntp168
Rp169
(dp170
g124
F0.8
sg19
S'(0.8, Name)'
p171
sg23
g24
sbag0
(cdedupe.predicates
TfidfTextSearchPredicate
p172
g2
Ntp173
Rp174
(dp175
g124
F0.2
sg19
S'(0.2, Name)'
p176
sg23
g24
sbag0
(g172
g2
Ntp177
Rp178
(dp179
g124
F0.4
sg19
S'(0.4, Name)'
p180
sg23
g24
sbag0
(g172
g2
Ntp181
Rp182
(dp183
g124
F0.6
sg19
S'(0.6, Name)'
p184
sg23
g24
sbag0
(g172
g2
Ntp185
Rp186
(dp187
g124
F0.8
sg19
S'(0.8, Name)'
p188
sg23
g24
sbasg23
g24
sS'name'
p189
S'(Name: String)'
p190
sS'has_missing'
p191
I00
sS'comparator'
p192
caffinegap.affinegap
normalizedAffineGapDistance
p193
sbag0
(g8
g2
Ntp194
Rp195
(dp196
g12
(lp197
g0
(g14
g2
Ntp198
Rp199
(dp200
g18
I-2049731014695608420
sg19
S'(wholeFieldPredicate, Zip)'
p201
sg21
g22
sg23
S'Zip'
p202
sbag0
(g14
g2
Ntp203
Rp204
(dp205
g18
I1644923238848626518
sg19
S'(firstTokenPredicate, Zip)'
p206
sg21
g29
sg23
g202
sbag0
(g14
g2
Ntp207
Rp208
(dp209
g18
I-8407332983126133285
sg19
S'(commonIntegerPredicate, Zip)'
p210
sg21
g34
sg23
g202
sbag0
(g14
g2
Ntp211
Rp212
(dp213
g18
I-4696243542396000438
sg19
S'(nearIntegersPredicate, Zip)'
p214
sg21
g39
sg23
g202
sbag0
(g14
g2
Ntp215
Rp216
(dp217
g18
I-144443378059759225
sg19
S'(firstIntegerPredicate, Zip)'
p218
sg21
g44
sg23
g202
sbag0
(g14
g2
Ntp219
Rp220
(dp221
g18
I7045029434645247035
sg19
S'(sameThreeCharStartPredicate, Zip)'
p222
sg21
g49
sg23
g202
sbag0
(g14
g2
Ntp223
Rp224
(dp225
g18
I6396533109419194680
sg19
S'(sameFiveCharStartPredicate, Zip)'
p226
sg21
g54
sg23
g202
sbag0
(g14
g2
Ntp227
Rp228
(dp229
g18
I-3527362051778168580
sg19
S'(sameSevenCharStartPredicate, Zip)'
p230
sg21
g59
sg23
g202
sbag0
(g14
g2
Ntp231
Rp232
(dp233
g18
I-4637139559181234249
sg19
S'(commonTwoTokens, Zip)'
p234
sg21
g64
sg23
g202
sbag0
(g14
g2
Ntp235
Rp236
(dp237
g18
I-8154031092955345653
sg19
S'(commonThreeTokens, Zip)'
p238
sg21
g69
sg23
g202
sbag0
(g14
g2
Ntp239
Rp240
(dp241
g18
I-3317725315892959122
sg19
S'(fingerprint, Zip)'
p242
sg21
g74
sg23
g202
sbag0
(g14
g2
Ntp243
Rp244
(dp245
g18
I8994895442430851258
sg19
S'(oneGramFingerprint, Zip)'
p246
sg21
g79
sg23
g202
sbag0
(g14
g2
Ntp247
Rp248
(dp249
g18
I-5718337086971519884
sg19
S'(twoGramFingerprint, Zip)'
p250
sg21
g84
sg23
g202
sbag0
(g14
g2
Ntp251
Rp252
(dp253
g18
I-5513213291598383978
sg19
S'(sortedAcronym, Zip)'
p254
sg21
g89
sg23
g202
sbag0
(g14
g2
Ntp255
Rp256
(dp257
g18
I-7976250316466547445
sg19
S'(commonFourGram, Zip)'
p258
sg21
g94
sg23
g202
sbag0
(g14
g2
Ntp259
Rp260
(dp261
g18
I359963426147293960
sg19
S'(commonSixGram, Zip)'
p262
sg21
g99
sg23
g202
sbag0
(g14
g2
Ntp263
Rp264
(dp265
g18
I1342250713774902614
sg19
S'(tokenFieldPredicate, Zip)'
p266
sg21
g104
sg23
g202
sbag0
(g14
g2
Ntp267
Rp268
(dp269
g18
I-5139833997665985276
sg19
S'(suffixArray, Zip)'
p270
sg21
g109
sg23
g202
sbag0
(g14
g2
Ntp271
Rp272
(dp273
g18
I7979298605776353638
sg19
S'(doubleMetaphone, Zip)'
p274
sg21
g114
sg23
g202
sbag0
(g14
g2
Ntp275
Rp276
(dp277
g18
I8251434702114847925
sg19
S'(metaphoneToken, Zip)'
p278
sg21
g119
sg23
g202
sbag0
(g120
g2
Ntp279
Rp280
(dp281
g124
F0.2
sg19
S'(0.2, Zip)'
p282
sg23
g202
sbag0
(g120
g2
Ntp283
Rp284
(dp285
g124
F0.4
sg19
S'(0.4, Zip)'
p286
sg23
g202
sbag0
(g120
g2
Ntp287
Rp288
(dp289
g124
F0.6
sg19
S'(0.6, Zip)'
p290
sg23
g202
sbag0
(g120
g2
Ntp291
Rp292
(dp293
g124
F0.8
sg19
S'(0.8, Zip)'
p294
sg23
g202
sbag0
(g138
g2
Ntp295
Rp296
(dp297
g124
F0.2
sg19
S'(0.2, Zip)'
p298
sg23
g202
sbag0
(g138
g2
Ntp299
Rp300
(dp301
g124
F0.4
sg19
S'(0.4, Zip)'
p302
sg23
g202
sbag0
(g138
g2
Ntp303
Rp304
(dp305
g124
F0.6
sg19
S'(0.6, Zip)'
p306
sg23
g202
sbag0
(g138
g2
Ntp307
Rp308
(dp309
g124
F0.8
sg19
S'(0.8, Zip)'
p310
sg23
g202
sbag0
(g155
g2
Ntp311
Rp312
(dp313
g124
F0.2
sg19
S'(0.2, Zip)'
p314
sg23
g202
sbag0
(g155
g2
Ntp315
Rp316
(dp317
g124
F0.4
sg19
S'(0.4, Zip)'
p318
sg23
g202
sbag0
(g155
g2
Ntp319
Rp320
(dp321
g124
F0.6
sg19
S'(0.6, Zip)'
p322
sg23
g202
sbag0
(g155
g2
Ntp323
Rp324
(dp325
g124
F0.8
sg19
S'(0.8, Zip)'
p326
sg23
g202
sbag0
(g172
g2
Ntp327
Rp328
(dp329
g124
F0.2
sg19
S'(0.2, Zip)'
p330
sg23
g202
sbag0
(g172
g2
Ntp331
Rp332
(dp333
g124
F0.4
sg19
S'(0.4, Zip)'
p334
sg23
g202
sbag0
(g172
g2
Ntp335
Rp336
(dp337
g124
F0.6
sg19
S'(0.6, Zip)'
p338
sg23
g202
sbag0
(g172
g2
Ntp339
Rp340
(dp341
g124
F0.8
sg19
S'(0.8, Zip)'
p342
sg23
g202
sbasg23
g202
sg189
S'(Zip: String)'
p343
sg191
I00
sg192
g193
sbag0
(g8
g2
Ntp344
Rp345
(dp346
g12
(lp347
g0
(g14
g2
Ntp348
Rp349
(dp350
g18
I6410461724531563761
sg19
S'(wholeFieldPredicate, Phone)'
p351
sg21
g22
sg23
S'Phone'
p352
sbag0
(g14
g2
Ntp353
Rp354
(dp355
g18
I-9083105583828109333
sg19
S'(firstTokenPredicate, Phone)'
p356
sg21
g29
sg23
g352
sbag0
(g14
g2
Ntp357
Rp358
(dp359
g18
I2973062451850511518
sg19
S'(commonIntegerPredicate, Phone)'
p360
sg21
g34
sg23
g352
sbag0
(g14
g2
Ntp361
Rp362
(dp363
g18
I-1760885962446012989
sg19
S'(nearIntegersPredicate, Phone)'
p364
sg21
g39
sg23
g352
sbag0
(g14
g2
Ntp365
Rp366
(dp367
g18
I3130978320515755934
sg19
S'(firstIntegerPredicate, Phone)'
p368
sg21
g44
sg23
g352
sbag0
(g14
g2
Ntp369
Rp370
(dp371
g18
I572703418347365222
sg19
S'(sameThreeCharStartPredicate, Phone)'
p372
sg21
g49
sg23
g352
sbag0
(g14
g2
Ntp373
Rp374
(dp375
g18
I-7773597342498170843
sg19
S'(sameFiveCharStartPredicate, Phone)'
p376
sg21
g54
sg23
g352
sbag0
(g14
g2
Ntp377
Rp378
(dp379
g18
I-5705151467061299567
sg19
S'(sameSevenCharStartPredicate, Phone)'
p380
sg21
g59
sg23
g352
sbag0
(g14
g2
Ntp381
Rp382
(dp383
g18
I3073795256519914082
sg19
S'(commonTwoTokens, Phone)'
p384
sg21
g64
sg23
g352
sbag0
(g14
g2
Ntp385
Rp386
(dp387
g18
I7924310317743081618
sg19
S'(commonThreeTokens, Phone)'
p388
sg21
g69
sg23
g352
sbag0
(g14
g2
Ntp389
Rp390
(dp391
g18
I-8732054964909911981
sg19
S'(fingerprint, Phone)'
p392
sg21
g74
sg23
g352
sbag0
(g14
g2
Ntp393
Rp394
(dp395
g18
I-5168341012184767641
sg19
S'(oneGramFingerprint, Phone)'
p396
sg21
g79
sg23
g352
sbag0
(g14
g2
Ntp397
Rp398
(dp399
g18
I-1938556535271651055
sg19
S'(twoGramFingerprint, Phone)'
p400
sg21
g84
sg23
g352
sbag0
(g14
g2
Ntp401
Rp402
(dp403
g18
I-2826791359150570713
sg19
S'(sortedAcronym, Phone)'
p404
sg21
g89
sg23
g352
sbag0
(g14
g2
Ntp405
Rp406
(dp407
g18
I-1553189275330008834
sg19
S'(commonFourGram, Phone)'
p408
sg21
g94
sg23
g352
sbag0
(g14
g2
Ntp409
Rp410
(dp411
g18
I-7928302116548927759
sg19
S'(commonSixGram, Phone)'
p412
sg21
g99
sg23
g352
sbag0
(g14
g2
Ntp413
Rp414
(dp415
g18
I1234515014517274091
sg19
S'(tokenFieldPredicate, Phone)'
p416
sg21
g104
sg23
g352
sbag0
(g14
g2
Ntp417
Rp418
(dp419
g18
I7600663209691611273
sg19
S'(suffixArray, Phone)'
p420
sg21
g109
sg23
g352
sbag0
(g14
g2
Ntp421
Rp422
(dp423
g18
I5523360571085405163
sg19
S'(doubleMetaphone, Phone)'
p424
sg21
g114
sg23
g352
sbag0
(g14
g2
Ntp425
Rp426
(dp427
g18
I7161137989658942024
sg19
S'(metaphoneToken, Phone)'
p428
sg21
g119
sg23
g352
sbag0
(g120
g2
Ntp429
Rp430
(dp431
g124
F0.2
sg19
S'(0.2, Phone)'
p432
sg23
g352
sbag0
(g120
g2
Ntp433
Rp434
(dp435
g124
F0.4
sg19
S'(0.4, Phone)'
p436
sg23
g352
sbag0
(g120
g2
Ntp437
Rp438
(dp439
g124
F0.6
sg19
S'(0.6, Phone)'
p440
sg23
g352
sbag0
(g120
g2
Ntp441
Rp442
(dp443
g124
F0.8
sg19
S'(0.8, Phone)'
p444
sg23
g352
sbag0
(g138
g2
Ntp445
Rp446
(dp447
g124
F0.2
sg19
S'(0.2, Phone)'
p448
sg23
g352
sbag0
(g138
g2
Ntp449
Rp450
(dp451
g124
F0.4
sg19
S'(0.4, Phone)'
p452
sg23
g352
sbag0
(g138
g2
Ntp453
Rp454
(dp455
g124
F0.6
sg19
S'(0.6, Phone)'
p456
sg23
g352
sbag0
(g138
g2
Ntp457
Rp458
(dp459
g124
F0.8
sg19
S'(0.8, Phone)'
p460
sg23
g352
sbag0
(g155
g2
Ntp461
Rp462
(dp463
g124
F0.2
sg19
S'(0.2, Phone)'
p464
sg23
g352
sbag0
(g155
g2
Ntp465
Rp466
(dp467
g124
F0.4
sg19
S'(0.4, Phone)'
p468
sg23
g352
sbag0
(g155
g2
Ntp469
Rp470
(dp471
g124
F0.6
sg19
S'(0.6, Phone)'
p472
sg23
g352
sbag0
(g155
g2
Ntp473
Rp474
(dp475
g124
F0.8
sg19
S'(0.8, Phone)'
p476
sg23
g352
sbag0
(g172
g2
Ntp477
Rp478
(dp479
g124
F0.2
sg19
S'(0.2, Phone)'
p480
sg23
g352
sbag0
(g172
g2
Ntp481
Rp482
(dp483
g124
F0.4
sg19
S'(0.4, Phone)'
p484
sg23
g352
sbag0
(g172
g2
Ntp485
Rp486
(dp487
g124
F0.6
sg19
S'(0.6, Phone)'
p488
sg23
g352
sbag0
(g172
g2
Ntp489
Rp490
(dp491
g124
F0.8
sg19
S'(0.8, Phone)'
p492
sg23
g352
sbasg23
g352
sg189
S'(Phone: String)'
p493
sg191
I00
sg192
g193
sbag0
(g8
g2
Ntp494
Rp495
(dp496
g12
(lp497
g0
(g14
g2
Ntp498
Rp499
(dp500
g18
I5671443427162401619
sg19
S'(wholeFieldPredicate, Address)'
p501
sg21
g22
sg23
S'Address'
p502
sbag0
(g14
g2
Ntp503
Rp504
(dp505
g18
I-6144244722235729819
sg19
S'(firstTokenPredicate, Address)'
p506
sg21
g29
sg23
g502
sbag0
(g14
g2
Ntp507
Rp508
(dp509
g18
I-6105001349865885936
sg19
S'(commonIntegerPredicate, Address)'
p510
sg21
g34
sg23
g502
sbag0
(g14
g2
Ntp511
Rp512
(dp513
g18
I4311792128687445309
sg19
S'(nearIntegersPredicate, Address)'
p514
sg21
g39
sg23
g502
sbag0
(g14
g2
Ntp515
Rp516
(dp517
g18
I1112459212690108004
sg19
S'(firstIntegerPredicate, Address)'
p518
sg21
g44
sg23
g502
sbag0
(g14
g2
Ntp519
Rp520
(dp521
g18
I2476103115129517596
sg19
S'(sameThreeCharStartPredicate, Address)'
p522
sg21
g49
sg23
g502
sbag0
(g14
g2
Ntp523
Rp524
(dp525
g18
I-1081331885272860157
sg19
S'(sameFiveCharStartPredicate, Address)'
p526
sg21
g54
sg23
g502
sbag0
(g14
g2
Ntp527
Rp528
(dp529
g18
I4854036202275454947
sg19
S'(sameSevenCharStartPredicate, Address)'
p530
sg21
g59
sg23
g502
sbag0
(g14
g2
Ntp531
Rp532
(dp533
g18
I6644754370395040888
sg19
S'(commonTwoTokens, Address)'
p534
sg21
g64
sg23
g502
sbag0
(g14
g2
Ntp535
Rp536
(dp537
g18
I-3022822841853469504
sg19
S'(commonThreeTokens, Address)'
p538
sg21
g69
sg23
g502
sbag0
(g14
g2
Ntp539
Rp540
(dp541
g18
I6174096197962272541
sg19
S'(fingerprint, Address)'
p542
sg21
g74
sg23
g502
sbag0
(g14
g2
Ntp543
Rp544
(dp545
g18
I3046490261813618045
sg19
S'(oneGramFingerprint, Address)'
p546
sg21
g79
sg23
g502
sbag0
(g14
g2
Ntp547
Rp548
(dp549
g18
I-4528934104119463681
sg19
S'(twoGramFingerprint, Address)'
p550
sg21
g84
sg23
g502
sbag0
(g14
g2
Ntp551
Rp552
(dp553
g18
I3238180657210265385
sg19
S'(sortedAcronym, Address)'
p554
sg21
g89
sg23
g502
sbag0
(g14
g2
Ntp555
Rp556
(dp557
g18
I-1165911001230499664
sg19
S'(commonFourGram, Address)'
p558
sg21
g94
sg23
g502
sbag0
(g14
g2
Ntp559
Rp560
(dp561
g18
I-381466026223483213
sg19
S'(commonSixGram, Address)'
p562
sg21
g99
sg23
g502
sbag0
(g14
g2
Ntp563
Rp564
(dp565
g18
I1177255931426260581
sg19
S'(tokenFieldPredicate, Address)'
p566
sg21
g104
sg23
g502
sbag0
(g14
g2
Ntp567
Rp568
(dp569
g18
I6245013628151581675
sg19
S'(suffixArray, Address)'
p570
sg21
g109
sg23
g502
sbag0
(g14
g2
Ntp571
Rp572
(dp573
g18
I-7390532110034617635
sg19
S'(doubleMetaphone, Address)'
p574
sg21
g114
sg23
g502
sbag0
(g14
g2
Ntp575
Rp576
(dp577
g18
I6462365307518102858
sg19
S'(metaphoneToken, Address)'
p578
sg21
g119
sg23
g502
sbag0
(g120
g2
Ntp579
Rp580
(dp581
g124
F0.2
sg19
S'(0.2, Address)'
p582
sg23
g502
sbag0
(g120
g2
Ntp583
Rp584
(dp585
g124
F0.4
sg19
S'(0.4, Address)'
p586
sg23
g502
sbag0
(g120
g2
Ntp587
Rp588
(dp589
g124
F0.6
sg19
S'(0.6, Address)'
p590
sg23
g502
sbag0
(g120
g2
Ntp591
Rp592
(dp593
g124
F0.8
sg19
S'(0.8, Address)'
p594
sg23
g502
sbag0
(g138
g2
Ntp595
Rp596
(dp597
g124
F0.2
sg19
S'(0.2, Address)'
p598
sg23
g502
sbag0
(g138
g2
Ntp599
Rp600
(dp601
g124
F0.4
sg19
S'(0.4, Address)'
p602
sg23
g502
sbag0
(g138
g2
Ntp603
Rp604
(dp605
g124
F0.6
sg19
S'(0.6, Address)'
p606
sg23
g502
sbag0
(g138
g2
Ntp607
Rp608
(dp609
g124
F0.8
sg19
S'(0.8, Address)'
p610
sg23
g502
sbag0
(g155
g2
Ntp611
Rp612
(dp613
g124
F0.2
sg19
S'(0.2, Address)'
p614
sg23
g502
sbag0
(g155
g2
Ntp615
Rp616
(dp617
g124
F0.4
sg19
S'(0.4, Address)'
p618
sg23
g502
sbag0
(g155
g2
Ntp619
Rp620
(dp621
g124
F0.6
sg19
S'(0.6, Address)'
p622
sg23
g502
sbag0
(g155
g2
Ntp623
Rp624
(dp625
g124
F0.8
sg19
S'(0.8, Address)'
p626
sg23
g502
sbag0
(g172
g2
Ntp627
Rp628
(dp629
g124
F0.2
sg19
S'(0.2, Address)'
p630
sg23
g502
sbag0
(g172
g2
Ntp631
Rp632
(dp633
g124
F0.4
sg19
S'(0.4, Address)'
p634
sg23
g502
sbag0
(g172
g2
Ntp635
Rp636
(dp637
g124
F0.6
sg19
S'(0.6, Address)'
p638
sg23
g502
sbag0
(g172
g2
Ntp639
Rp640
(dp641
g124
F0.8
sg19
S'(0.8, Address)'
p642
sg23
g502
sbasg23
g502
sg189
S'(Address: String)'
p643
sg191
I00
sg192
g193
sbasS'_variables'
p644
(lp645
g10
ag195
ag345
ag495
asS'_missing_field_indices'
p646
(lp647
sS'_derived_start'
p648
I4
sS'_interaction_indices'
p649
(lp650
sb.ccopy_reg
_reconstructor
p0
(crlr.lr
RegularizedLogisticRegression
p1
c__builtin__
object
p2
Ntp3
Rp4
(dp5
S'alpha'
p6
F0.001
sS'bias'
p7
cnumpy.core.multiarray
scalar
p8
(cnumpy
dtype
p9
(S'f8'
p10
I0
I1
tp11
Rp12
(I3
S'<'
p13
NNNI-1
I-1
I0
tp14
bS'\x98R\x1c\xc5\x0b\xa5Q@'
p15
tp16
Rp17
sS'num_cores'
p18
I0
sS'cv'
p19
I3
sS'weights'
p20
cnumpy.core.multiarray
_reconstruct
p21
(cnumpy
ndarray
p22
(I0
tp23
S'b'
p24
tp25
Rp26
(I1
(I4
tp27
g12
I00
S"mw\xa0\xedz\xd1+\xc0\x81\x05\xdea\xb7\xf1A\xc0h\xcf*'\x15\xb8(\xc0\x7f\x1efAsH,\xc0"
p28
tp29
bsb.(ccopy_reg
_reconstructor
p0
(cdedupe.predicates
CompoundPredicate
p1
c__builtin__
tuple
p2
(g0
(cdedupe.predicates
StringPredicate
p3
c__builtin__
object
p4
Ntp5
Rp6
(dp7
S'_cached_hash'
p8
I3130978320515755934
sS'__name__'
p9
S'(firstIntegerPredicate, Phone)'
p10
sS'func'
p11
cdedupe.predicates
firstIntegerPredicate
p12
sS'field'
p13
S'Phone'
p14
sbg0
(g3
g4
Ntp15
Rp16
(dp17
g8
I4854036202275454947
sg9
S'(sameSevenCharStartPredicate, Address)'
p18
sg11
cdedupe.predicates
sameSevenCharStartPredicate
p19
sg13
S'Address'
p20
sbtp21
tp22
Rp23
g0
(g1
g2
(g0
(cdedupe.predicates
TfidfNGramCanopyPredicate
p24
g4
Ntp25
Rp26
(dp27
S'threshold'
p28
F0.8
sg9
S'(0.8, Zip)'
p29
sg13
S'Zip'
p30
sbg0
(cdedupe.predicates
TfidfTextCanopyPredicate
p31
g4
Ntp32
Rp33
(dp34
g28
F0.4
sg9
S'(0.4, Phone)'
p35
sg13
g14
sbtp36
tp37
Rp38
g0
(g1
g2
(g0
(g3
g4
Ntp39
Rp40
(dp41
g8
I1542648151749340665
sg9
S'(twoGramFingerprint, Name)'
p42
sg11
cdedupe.predicates
twoGramFingerprint
p43
sg13
S'Name'
p44
sbg0
(g24
g4
Ntp45
Rp46
(dp47
g28
F0.2
sg9
S'(0.2, Address)'
p48
sg13
g20
sbtp49
tp50
Rp51
tp52
.